

Microchip MPLAB XC8 Assembler V2.35 build 20211206165544 
                                                                                               Thu Aug 18 20:17:04 2022

Microchip MPLAB XC8 C Compiler v2.35 (Free license) build 20211206165544 Og1 
     1                           	processor	16F887
     2                           	pagewidth 120
     3                           	opt	flic
     4                           	psect	cinit,global,class=CODE,merge=1,delta=2
     5                           	psect	bssCOMMON,global,class=COMMON,space=1,delta=1,noexec
     6                           	psect	bssBANK0,global,class=BANK0,space=1,delta=1,noexec
     7                           	psect	cstackCOMMON,global,class=COMMON,space=1,delta=1,noexec
     8                           	psect	cstackBANK0,global,class=BANK0,space=1,delta=1,noexec
     9                           	psect	maintext,global,class=CODE,split=1,delta=2
    10                           	psect	text1,local,class=CODE,merge=1,delta=2
    11                           	psect	text2,local,class=CODE,merge=1,delta=2
    12                           	psect	text3,local,class=CODE,merge=1,delta=2
    13                           	psect	text4,local,class=CODE,merge=1,delta=2
    14                           	psect	text5,local,class=CODE,merge=1,delta=2,group=1
    15                           	psect	text6,local,class=CODE,merge=1,delta=2
    16                           	psect	text7,local,class=CODE,merge=1,delta=2
    17                           	psect	text8,local,class=CODE,merge=1,delta=2
    18                           	psect	text9,local,class=CODE,merge=1,delta=2
    19                           	psect	text10,local,class=CODE,merge=1,delta=2
    20                           	psect	intentry,global,class=CODE,delta=2
    21                           	psect	text11,local,class=CODE,merge=1,delta=2
    22                           	psect	idloc,global,abs,ovrld,class=IDLOC,space=5,delta=2,noexec
    23                           	psect	config,global,abs,ovrld,class=CONFIG,space=4,delta=2,noexec
    24                           	dabs	1,0x7E,2
    25  0000                     
    26                           ; Version 2.40
    27                           ; Generated 17/11/2021 GMT
    28                           ; 
    29                           ; Copyright © 2021, Microchip Technology Inc. and its subsidiaries ("Microchip")
    30                           ; All rights reserved.
    31                           ; 
    32                           ; This software is developed by Microchip Technology Inc. and its subsidiaries ("Microch
      +                          ip").
    33                           ; 
    34                           ; Redistribution and use in source and binary forms, with or without modification, are
    35                           ; permitted provided that the following conditions are met:
    36                           ; 
    37                           ;     1. Redistributions of source code must retain the above copyright notice, this lis
      +                          t of
    38                           ;        conditions and the following disclaimer.
    39                           ; 
    40                           ;     2. Redistributions in binary form must reproduce the above copyright notice, this 
      +                          list
    41                           ;        of conditions and the following disclaimer in the documentation and/or other
    42                           ;        materials provided with the distribution. Publication is not required when
    43                           ;        this file is used in an embedded application.
    44                           ; 
    45                           ;     3. Microchip's name may not be used to endorse or promote products derived from th
      +                          is
    46                           ;        software without specific prior written permission.
    47                           ; 
    48                           ; THIS SOFTWARE IS PROVIDED BY MICROCHIP "AS IS" AND ANY EXPRESS OR IMPLIED WARRANTIES,
    49                           ; INCLUDING, BUT NOT LIMITED TO, THE IMPLIED WARRANTIES OF MERCHANTABILITY AND FITNESS F
      +                          OR
    50                           ; PURPOSE ARE DISCLAIMED.  IN NO EVENT SHALL MICROCHIP BE LIABLE FOR ANY DIRECT, INDIREC
      +                          T,
    51                           ; INCIDENTAL, SPECIAL, EXEMPLARY, OR CONSEQUENTIAL DAMAGES (INCLUDING BUT NOT LIMITED TO
    52                           ; PROCUREMENT OF SUBSTITUTE GOODS OR SERVICES; LOSS OF USE, DATA OR PROFITS; OR BUSINESS
    53                           ; INTERRUPTION) HOWSOEVER CAUSED AND ON ANY THEORY OF LIABILITY, WHETHER IN CONTRACT, ST
      +                          RICT
    54                           ; LIABILITY, OR TORT (INCLUDING NEGLIGENCE OR OTHERWISE) ARISING IN ANY WAY OUT OF THE U
      +                          SE OF
    55                           ; THIS SOFTWARE, EVEN IF ADVISED OF THE POSSIBILITY OF SUCH DAMAGE.
    56                           ; 
    57                           ; 
    58                           ; Code-generator required, PIC16F887 Definitions
    59                           ; 
    60                           ; SFR Addresses
    61  0000                     	;# 
    62  0001                     	;# 
    63  0002                     	;# 
    64  0003                     	;# 
    65  0004                     	;# 
    66  0005                     	;# 
    67  0006                     	;# 
    68  0007                     	;# 
    69  0008                     	;# 
    70  0009                     	;# 
    71  000A                     	;# 
    72  000B                     	;# 
    73  000C                     	;# 
    74  000D                     	;# 
    75  000E                     	;# 
    76  000E                     	;# 
    77  000F                     	;# 
    78  0010                     	;# 
    79  0011                     	;# 
    80  0012                     	;# 
    81  0013                     	;# 
    82  0014                     	;# 
    83  0015                     	;# 
    84  0015                     	;# 
    85  0016                     	;# 
    86  0017                     	;# 
    87  0018                     	;# 
    88  0019                     	;# 
    89  001A                     	;# 
    90  001B                     	;# 
    91  001B                     	;# 
    92  001C                     	;# 
    93  001D                     	;# 
    94  001E                     	;# 
    95  001F                     	;# 
    96  0081                     	;# 
    97  0085                     	;# 
    98  0086                     	;# 
    99  0087                     	;# 
   100  0088                     	;# 
   101  0089                     	;# 
   102  008C                     	;# 
   103  008D                     	;# 
   104  008E                     	;# 
   105  008F                     	;# 
   106  0090                     	;# 
   107  0091                     	;# 
   108  0092                     	;# 
   109  0093                     	;# 
   110  0093                     	;# 
   111  0093                     	;# 
   112  0094                     	;# 
   113  0095                     	;# 
   114  0096                     	;# 
   115  0097                     	;# 
   116  0098                     	;# 
   117  0099                     	;# 
   118  009A                     	;# 
   119  009B                     	;# 
   120  009C                     	;# 
   121  009D                     	;# 
   122  009E                     	;# 
   123  009F                     	;# 
   124  0105                     	;# 
   125  0107                     	;# 
   126  0108                     	;# 
   127  0109                     	;# 
   128  010C                     	;# 
   129  010C                     	;# 
   130  010D                     	;# 
   131  010E                     	;# 
   132  010F                     	;# 
   133  0185                     	;# 
   134  0187                     	;# 
   135  0188                     	;# 
   136  0189                     	;# 
   137  018C                     	;# 
   138  018D                     	;# 
   139  0000                     	;# 
   140  0001                     	;# 
   141  0002                     	;# 
   142  0003                     	;# 
   143  0004                     	;# 
   144  0005                     	;# 
   145  0006                     	;# 
   146  0007                     	;# 
   147  0008                     	;# 
   148  0009                     	;# 
   149  000A                     	;# 
   150  000B                     	;# 
   151  000C                     	;# 
   152  000D                     	;# 
   153  000E                     	;# 
   154  000E                     	;# 
   155  000F                     	;# 
   156  0010                     	;# 
   157  0011                     	;# 
   158  0012                     	;# 
   159  0013                     	;# 
   160  0014                     	;# 
   161  0015                     	;# 
   162  0015                     	;# 
   163  0016                     	;# 
   164  0017                     	;# 
   165  0018                     	;# 
   166  0019                     	;# 
   167  001A                     	;# 
   168  001B                     	;# 
   169  001B                     	;# 
   170  001C                     	;# 
   171  001D                     	;# 
   172  001E                     	;# 
   173  001F                     	;# 
   174  0081                     	;# 
   175  0085                     	;# 
   176  0086                     	;# 
   177  0087                     	;# 
   178  0088                     	;# 
   179  0089                     	;# 
   180  008C                     	;# 
   181  008D                     	;# 
   182  008E                     	;# 
   183  008F                     	;# 
   184  0090                     	;# 
   185  0091                     	;# 
   186  0092                     	;# 
   187  0093                     	;# 
   188  0093                     	;# 
   189  0093                     	;# 
   190  0094                     	;# 
   191  0095                     	;# 
   192  0096                     	;# 
   193  0097                     	;# 
   194  0098                     	;# 
   195  0099                     	;# 
   196  009A                     	;# 
   197  009B                     	;# 
   198  009C                     	;# 
   199  009D                     	;# 
   200  009E                     	;# 
   201  009F                     	;# 
   202  0105                     	;# 
   203  0107                     	;# 
   204  0108                     	;# 
   205  0109                     	;# 
   206  010C                     	;# 
   207  010C                     	;# 
   208  010D                     	;# 
   209  010E                     	;# 
   210  010F                     	;# 
   211  0185                     	;# 
   212  0187                     	;# 
   213  0188                     	;# 
   214  0189                     	;# 
   215  018C                     	;# 
   216  018D                     	;# 
   217  0000                     	;# 
   218  0001                     	;# 
   219  0002                     	;# 
   220  0003                     	;# 
   221  0004                     	;# 
   222  0005                     	;# 
   223  0006                     	;# 
   224  0007                     	;# 
   225  0008                     	;# 
   226  0009                     	;# 
   227  000A                     	;# 
   228  000B                     	;# 
   229  000C                     	;# 
   230  000D                     	;# 
   231  000E                     	;# 
   232  000E                     	;# 
   233  000F                     	;# 
   234  0010                     	;# 
   235  0011                     	;# 
   236  0012                     	;# 
   237  0013                     	;# 
   238  0014                     	;# 
   239  0015                     	;# 
   240  0015                     	;# 
   241  0016                     	;# 
   242  0017                     	;# 
   243  0018                     	;# 
   244  0019                     	;# 
   245  001A                     	;# 
   246  001B                     	;# 
   247  001B                     	;# 
   248  001C                     	;# 
   249  001D                     	;# 
   250  001E                     	;# 
   251  001F                     	;# 
   252  0081                     	;# 
   253  0085                     	;# 
   254  0086                     	;# 
   255  0087                     	;# 
   256  0088                     	;# 
   257  0089                     	;# 
   258  008C                     	;# 
   259  008D                     	;# 
   260  008E                     	;# 
   261  008F                     	;# 
   262  0090                     	;# 
   263  0091                     	;# 
   264  0092                     	;# 
   265  0093                     	;# 
   266  0093                     	;# 
   267  0093                     	;# 
   268  0094                     	;# 
   269  0095                     	;# 
   270  0096                     	;# 
   271  0097                     	;# 
   272  0098                     	;# 
   273  0099                     	;# 
   274  009A                     	;# 
   275  009B                     	;# 
   276  009C                     	;# 
   277  009D                     	;# 
   278  009E                     	;# 
   279  009F                     	;# 
   280  0105                     	;# 
   281  0107                     	;# 
   282  0108                     	;# 
   283  0109                     	;# 
   284  010C                     	;# 
   285  010C                     	;# 
   286  010D                     	;# 
   287  010E                     	;# 
   288  010F                     	;# 
   289  0185                     	;# 
   290  0187                     	;# 
   291  0188                     	;# 
   292  0189                     	;# 
   293  018C                     	;# 
   294  018D                     	;# 
   295  0000                     	;# 
   296  0001                     	;# 
   297  0002                     	;# 
   298  0003                     	;# 
   299  0004                     	;# 
   300  0005                     	;# 
   301  0006                     	;# 
   302  0007                     	;# 
   303  0008                     	;# 
   304  0009                     	;# 
   305  000A                     	;# 
   306  000B                     	;# 
   307  000C                     	;# 
   308  000D                     	;# 
   309  000E                     	;# 
   310  000E                     	;# 
   311  000F                     	;# 
   312  0010                     	;# 
   313  0011                     	;# 
   314  0012                     	;# 
   315  0013                     	;# 
   316  0014                     	;# 
   317  0015                     	;# 
   318  0015                     	;# 
   319  0016                     	;# 
   320  0017                     	;# 
   321  0018                     	;# 
   322  0019                     	;# 
   323  001A                     	;# 
   324  001B                     	;# 
   325  001B                     	;# 
   326  001C                     	;# 
   327  001D                     	;# 
   328  001E                     	;# 
   329  001F                     	;# 
   330  0081                     	;# 
   331  0085                     	;# 
   332  0086                     	;# 
   333  0087                     	;# 
   334  0088                     	;# 
   335  0089                     	;# 
   336  008C                     	;# 
   337  008D                     	;# 
   338  008E                     	;# 
   339  008F                     	;# 
   340  0090                     	;# 
   341  0091                     	;# 
   342  0092                     	;# 
   343  0093                     	;# 
   344  0093                     	;# 
   345  0093                     	;# 
   346  0094                     	;# 
   347  0095                     	;# 
   348  0096                     	;# 
   349  0097                     	;# 
   350  0098                     	;# 
   351  0099                     	;# 
   352  009A                     	;# 
   353  009B                     	;# 
   354  009C                     	;# 
   355  009D                     	;# 
   356  009E                     	;# 
   357  009F                     	;# 
   358  0105                     	;# 
   359  0107                     	;# 
   360  0108                     	;# 
   361  0109                     	;# 
   362  010C                     	;# 
   363  010C                     	;# 
   364  010D                     	;# 
   365  010E                     	;# 
   366  010F                     	;# 
   367  0185                     	;# 
   368  0187                     	;# 
   369  0188                     	;# 
   370  0189                     	;# 
   371  018C                     	;# 
   372  018D                     	;# 
   373  0000                     	;# 
   374  0001                     	;# 
   375  0002                     	;# 
   376  0003                     	;# 
   377  0004                     	;# 
   378  0005                     	;# 
   379  0006                     	;# 
   380  0007                     	;# 
   381  0008                     	;# 
   382  0009                     	;# 
   383  000A                     	;# 
   384  000B                     	;# 
   385  000C                     	;# 
   386  000D                     	;# 
   387  000E                     	;# 
   388  000E                     	;# 
   389  000F                     	;# 
   390  0010                     	;# 
   391  0011                     	;# 
   392  0012                     	;# 
   393  0013                     	;# 
   394  0014                     	;# 
   395  0015                     	;# 
   396  0015                     	;# 
   397  0016                     	;# 
   398  0017                     	;# 
   399  0018                     	;# 
   400  0019                     	;# 
   401  001A                     	;# 
   402  001B                     	;# 
   403  001B                     	;# 
   404  001C                     	;# 
   405  001D                     	;# 
   406  001E                     	;# 
   407  001F                     	;# 
   408  0081                     	;# 
   409  0085                     	;# 
   410  0086                     	;# 
   411  0087                     	;# 
   412  0088                     	;# 
   413  0089                     	;# 
   414  008C                     	;# 
   415  008D                     	;# 
   416  008E                     	;# 
   417  008F                     	;# 
   418  0090                     	;# 
   419  0091                     	;# 
   420  0092                     	;# 
   421  0093                     	;# 
   422  0093                     	;# 
   423  0093                     	;# 
   424  0094                     	;# 
   425  0095                     	;# 
   426  0096                     	;# 
   427  0097                     	;# 
   428  0098                     	;# 
   429  0099                     	;# 
   430  009A                     	;# 
   431  009B                     	;# 
   432  009C                     	;# 
   433  009D                     	;# 
   434  009E                     	;# 
   435  009F                     	;# 
   436  0105                     	;# 
   437  0107                     	;# 
   438  0108                     	;# 
   439  0109                     	;# 
   440  010C                     	;# 
   441  010C                     	;# 
   442  010D                     	;# 
   443  010E                     	;# 
   444  010F                     	;# 
   445  0185                     	;# 
   446  0187                     	;# 
   447  0188                     	;# 
   448  0189                     	;# 
   449  018C                     	;# 
   450  018D                     	;# 
   451  0001                     _TMR0	set	1
   452  0006                     _PORTB	set	6
   453  000B                     _INTCONbits	set	11
   454  0013                     _SSPBUF	set	19
   455  0014                     _SSPCON	set	20
   456  0063                     _SSPIF	set	99
   457  005E                     _PEIE	set	94
   458  005F                     _GIE	set	95
   459  008F                     _OSCCONbits	set	143
   460  0081                     _OPTION_REGbits	set	129
   461  0086                     _TRISB	set	134
   462  0091                     _SSPCON2bits	set	145
   463  0087                     _TRISCbits	set	135
   464  0094                     _SSPSTAT	set	148
   465  0093                     _SSPADD	set	147
   466  0091                     _SSPCON2	set	145
   467  0463                     _SSPIE	set	1123
   468  043C                     _TRISC4	set	1084
   469  043B                     _TRISC3	set	1083
   470  0189                     _ANSELH	set	393
   471  0188                     _ANSEL	set	392
   472                           
   473                           	psect	cinit
   474  000F                     start_initialization:	
   475                           ; #config settings
   476                           
   477  000F                     __initialization:
   478                           
   479                           ; Clear objects allocated to COMMON
   480  000F  01F9               	clrf	__pbssCOMMON& (0+127)
   481  0010  01FA               	clrf	(__pbssCOMMON+1)& (0+127)
   482                           
   483                           ; Clear objects allocated to BANK0
   484  0011  1283               	bcf	3,5	;RP0=0, select bank0
   485  0012  1303               	bcf	3,6	;RP1=0, select bank0
   486  0013  01B2               	clrf	__pbssBANK0& (0+127)
   487  0014                     end_of_initialization:	
   488                           ;End of C runtime variable initialization code
   489                           
   490  0014                     __end_of__initialization:
   491  0014  0183               	clrf	3
   492  0015  120A  118A  2911   	ljmp	_main	;jump to C main() function
   493                           
   494                           	psect	bssCOMMON
   495  0079                     __pbssCOMMON:
   496  0079                     _send:
   497  0079                     	ds	1
   498  007A                     _cont:
   499  007A                     	ds	1
   500                           
   501                           	psect	bssBANK0
   502  0032                     __pbssBANK0:
   503  0032                     _cont2:
   504  0032                     	ds	1
   505                           
   506                           	psect	cstackCOMMON
   507  0070                     __pcstackCOMMON:
   508  0070                     ?_tmr0_reload:
   509  0070                     ??_tmr0_reload:	
   510                           ; 1 bytes @ 0x0
   511                           
   512  0070                     ?_setup:	
   513                           ; 1 bytes @ 0x0
   514                           
   515  0070                     ?_int_osc_MHz:	
   516                           ; 1 bytes @ 0x0
   517                           
   518  0070                     ?_tmr0_init:	
   519                           ; 1 bytes @ 0x0
   520                           
   521  0070                     ?_I2C_Master_Wait:	
   522                           ; 1 bytes @ 0x0
   523                           
   524  0070                     ?_I2C_Master_Start:	
   525                           ; 1 bytes @ 0x0
   526                           
   527  0070                     ?_I2C_Master_Stop:	
   528                           ; 1 bytes @ 0x0
   529                           
   530  0070                     ?_isr:	
   531                           ; 1 bytes @ 0x0
   532                           
   533  0070                     ??_isr:	
   534                           ; 1 bytes @ 0x0
   535                           
   536  0070                     ?_main:	
   537                           ; 1 bytes @ 0x0
   538                           
   539                           
   540                           ; 1 bytes @ 0x0
   541  0070                     	ds	3
   542  0073                     ??_int_osc_MHz:
   543  0073                     ??_tmr0_init:	
   544                           ; 1 bytes @ 0x3
   545                           
   546  0073                     ??_I2C_Master_Wait:	
   547                           ; 1 bytes @ 0x3
   548                           
   549  0073                     ??_I2C_Master_Start:	
   550                           ; 1 bytes @ 0x3
   551                           
   552  0073                     ??_I2C_Master_Stop:	
   553                           ; 1 bytes @ 0x3
   554                           
   555  0073                     ?_I2C_Master_Write:	
   556                           ; 1 bytes @ 0x3
   557                           
   558  0073                     ??___lldiv:	
   559                           ; 1 bytes @ 0x3
   560                           
   561  0073                     I2C_Master_Write@d:	
   562                           ; 1 bytes @ 0x3
   563                           
   564                           
   565                           ; 2 bytes @ 0x3
   566  0073                     	ds	1
   567  0074                     ___lldiv@quotient:
   568                           
   569                           ; 4 bytes @ 0x4
   570  0074                     	ds	1
   571  0075                     ??_I2C_Master_Write:
   572  0075                     tmr0_init@prescaler:	
   573                           ; 1 bytes @ 0x5
   574                           
   575  0075                     int_osc_MHz@freq:	
   576                           ; 1 bytes @ 0x5
   577                           
   578                           
   579                           ; 1 bytes @ 0x5
   580  0075                     	ds	3
   581  0078                     ___lldiv@counter:
   582                           
   583                           ; 1 bytes @ 0x8
   584  0078                     	ds	1
   585  0079                     ??_setup:
   586                           
   587                           	psect	cstackBANK0
   588  0020                     __pcstackBANK0:	
   589                           ; 1 bytes @ 0x9
   590                           
   591  0020                     ?___lldiv:
   592  0020                     ___lldiv@divisor:	
   593                           ; 4 bytes @ 0x0
   594                           
   595                           
   596                           ; 4 bytes @ 0x0
   597  0020                     	ds	4
   598  0024                     ___lldiv@dividend:
   599                           
   600                           ; 4 bytes @ 0x4
   601  0024                     	ds	4
   602  0028                     ?_I2C_Master_Init:
   603  0028                     I2C_Master_Init@c:	
   604                           ; 1 bytes @ 0x8
   605                           
   606                           
   607                           ; 4 bytes @ 0x8
   608  0028                     	ds	4
   609  002C                     ??_I2C_Master_Init:
   610                           
   611                           ; 1 bytes @ 0xC
   612  002C                     	ds	4
   613  0030                     ??_main:
   614                           
   615                           ; 1 bytes @ 0x10
   616  0030                     	ds	2
   617                           
   618                           	psect	maintext
   619  0111                     __pmaintext:	
   620 ;;
   621 ;;Main: autosize = 0, tempsize = 2, incstack = 0, save=0
   622 ;;
   623 ;; *************** function _main *****************
   624 ;; Defined at:
   625 ;;		line 60 in file "main_ma.c"
   626 ;; Parameters:    Size  Location     Type
   627 ;;		None
   628 ;; Auto vars:     Size  Location     Type
   629 ;;		None
   630 ;; Return value:  Size  Location     Type
   631 ;;                  1    wreg      void 
   632 ;; Registers used:
   633 ;;		wreg, fsr0l, fsr0h, status,2, status,0, pclath, cstack
   634 ;; Tracked objects:
   635 ;;		On entry : B00/0
   636 ;;		On exit  : 0/0
   637 ;;		Unchanged: 0/0
   638 ;; Data sizes:     COMMON   BANK0   BANK1   BANK3   BANK2
   639 ;;      Params:         0       0       0       0       0
   640 ;;      Locals:         0       0       0       0       0
   641 ;;      Temps:          0       2       0       0       0
   642 ;;      Totals:         0       2       0       0       0
   643 ;;Total ram usage:        2 bytes
   644 ;; Hardware stack levels required when called: 5
   645 ;; This function calls:
   646 ;;		_I2C_Master_Start
   647 ;;		_I2C_Master_Stop
   648 ;;		_I2C_Master_Write
   649 ;;		_setup
   650 ;; This function is called by:
   651 ;;		Startup code after reset
   652 ;; This function uses a non-reentrant model
   653 ;;
   654                           
   655  0111                     _main:	
   656                           ;psect for function _main
   657                           
   658  0111                     l1262:	
   659                           ;incstack = 0
   660                           ; Regs used in _main: [wreg-fsr0h+status,2+status,0+pclath+cstack]
   661                           
   662                           
   663                           ;main_ma.c: 61:     setup();
   664  0111  120A  118A  2177  120A  118A  	fcall	_setup
   665  0116                     l1264:
   666                           
   667                           ;main_ma.c: 63:         I2C_Master_Start();
   668  0116  120A  118A  21E6  120A  118A  	fcall	_I2C_Master_Start
   669  011B                     l1266:
   670                           
   671                           ;main_ma.c: 64:         I2C_Master_Write(0x50);
   672  011B  3050               	movlw	80
   673  011C  00F3               	movwf	I2C_Master_Write@d
   674  011D  3000               	movlw	0
   675  011E  00F4               	movwf	I2C_Master_Write@d+1
   676  011F  120A  118A  21D3  120A  118A  	fcall	_I2C_Master_Write
   677  0124                     l1268:
   678                           
   679                           ;main_ma.c: 65:         I2C_Master_Write(cont2);
   680  0124  1283               	bcf	3,5	;RP0=0, select bank0
   681  0125  1303               	bcf	3,6	;RP1=0, select bank0
   682  0126  0832               	movf	_cont2,w
   683  0127  00B0               	movwf	??_main
   684  0128  01B1               	clrf	??_main+1
   685  0129  0830               	movf	??_main,w
   686  012A  00F3               	movwf	I2C_Master_Write@d
   687  012B  0831               	movf	??_main+1,w
   688  012C  00F4               	movwf	I2C_Master_Write@d+1
   689  012D  120A  118A  21D3  120A  118A  	fcall	_I2C_Master_Write
   690  0132                     l1270:
   691                           
   692                           ;main_ma.c: 66:         I2C_Master_Stop();
   693  0132  120A  118A  21DD  120A  118A  	fcall	_I2C_Master_Stop
   694  0137                     l1272:
   695                           
   696                           ;main_ma.c: 67:         _delay((unsigned long)((20)*(4000000/4000.0)));
   697  0137  301A               	movlw	26
   698  0138  1283               	bcf	3,5	;RP0=0, select bank0
   699  0139  1303               	bcf	3,6	;RP1=0, select bank0
   700  013A  00B1               	movwf	??_main+1
   701  013B  30F7               	movlw	247
   702  013C  00B0               	movwf	??_main
   703  013D                     u357:
   704  013D  0BB0               	decfsz	??_main,f
   705  013E  293D               	goto	u357
   706  013F  0BB1               	decfsz	??_main+1,f
   707  0140  293D               	goto	u357
   708  0141  2942               	nop2
   709  0142  2916               	goto	l1264
   710  0143  120A  118A  280C   	ljmp	start
   711  0146                     __end_of_main:
   712                           
   713                           	psect	text1
   714  0177                     __ptext1:	
   715 ;; *************** function _setup *****************
   716 ;; Defined at:
   717 ;;		line 79 in file "main_ma.c"
   718 ;; Parameters:    Size  Location     Type
   719 ;;		None
   720 ;; Auto vars:     Size  Location     Type
   721 ;;		None
   722 ;; Return value:  Size  Location     Type
   723 ;;                  1    wreg      void 
   724 ;; Registers used:
   725 ;;		wreg, fsr0l, fsr0h, status,2, status,0, pclath, cstack
   726 ;; Tracked objects:
   727 ;;		On entry : 0/0
   728 ;;		On exit  : 0/0
   729 ;;		Unchanged: 0/0
   730 ;; Data sizes:     COMMON   BANK0   BANK1   BANK3   BANK2
   731 ;;      Params:         0       0       0       0       0
   732 ;;      Locals:         0       0       0       0       0
   733 ;;      Temps:          0       0       0       0       0
   734 ;;      Totals:         0       0       0       0       0
   735 ;;Total ram usage:        0 bytes
   736 ;; Hardware stack levels used: 1
   737 ;; Hardware stack levels required when called: 4
   738 ;; This function calls:
   739 ;;		_I2C_Master_Init
   740 ;;		_int_osc_MHz
   741 ;;		_tmr0_init
   742 ;; This function is called by:
   743 ;;		_main
   744 ;; This function uses a non-reentrant model
   745 ;;
   746                           
   747  0177                     _setup:	
   748                           ;psect for function _setup
   749                           
   750  0177                     l1244:	
   751                           ;incstack = 0
   752                           ; Regs used in _setup: [wreg-fsr0h+status,2+status,0+pclath+cstack]
   753                           
   754                           
   755                           ;main_ma.c: 80:     ANSEL = 0;
   756  0177  1683               	bsf	3,5	;RP0=1, select bank3
   757  0178  1703               	bsf	3,6	;RP1=1, select bank3
   758  0179  0188               	clrf	8	;volatile
   759                           
   760                           ;main_ma.c: 81:     ANSELH = 0;
   761  017A  0189               	clrf	9	;volatile
   762  017B                     l1246:
   763                           
   764                           ;main_ma.c: 83:     TRISB = 0x0f;
   765  017B  300F               	movlw	15
   766  017C  1683               	bsf	3,5	;RP0=1, select bank1
   767  017D  1303               	bcf	3,6	;RP1=0, select bank1
   768  017E  0086               	movwf	6	;volatile
   769  017F                     l1248:
   770                           
   771                           ;main_ma.c: 84:     PORTB = 0;
   772  017F  1283               	bcf	3,5	;RP0=0, select bank0
   773  0180  1303               	bcf	3,6	;RP1=0, select bank0
   774  0181  0186               	clrf	6	;volatile
   775  0182                     l1250:
   776                           
   777                           ;main_ma.c: 86:     INTCONbits.T0IE = 1;
   778  0182  168B               	bsf	11,5	;volatile
   779  0183                     l1252:
   780                           
   781                           ;main_ma.c: 87:     INTCONbits.PEIE = 1;
   782  0183  170B               	bsf	11,6	;volatile
   783  0184                     l1254:
   784                           
   785                           ;main_ma.c: 88:     INTCONbits.GIE = 1;
   786  0184  178B               	bsf	11,7	;volatile
   787  0185                     l1256:
   788                           
   789                           ;main_ma.c: 90:     int_osc_MHz(4);
   790  0185  3004               	movlw	4
   791  0186  120A  118A  2146  120A  118A  	fcall	_int_osc_MHz
   792  018B                     l1258:
   793                           
   794                           ;main_ma.c: 91:     I2C_Master_Init(100000);
   795  018B  3000               	movlw	0
   796  018C  1283               	bcf	3,5	;RP0=0, select bank0
   797  018D  1303               	bcf	3,6	;RP1=0, select bank0
   798  018E  00AB               	movwf	I2C_Master_Init@c+3
   799  018F  3001               	movlw	1
   800  0190  00AA               	movwf	I2C_Master_Init@c+2
   801  0191  3086               	movlw	134
   802  0192  00A9               	movwf	I2C_Master_Init@c+1
   803  0193  30A0               	movlw	160
   804  0194  00A8               	movwf	I2C_Master_Init@c
   805  0195  120A  118A  20D7  120A  118A  	fcall	_I2C_Master_Init
   806  019A                     l1260:
   807                           
   808                           ;main_ma.c: 92:     tmr0_init(256);
   809  019A  3000               	movlw	0
   810  019B  120A  118A  2080  120A  118A  	fcall	_tmr0_init
   811  01A0                     l107:
   812  01A0  0008               	return
   813  01A1                     __end_of_setup:
   814                           
   815                           	psect	text2
   816  0080                     __ptext2:	
   817 ;; *************** function _tmr0_init *****************
   818 ;; Defined at:
   819 ;;		line 5 in file "../lab03.X/tmr0.c"
   820 ;; Parameters:    Size  Location     Type
   821 ;;  prescaler       1    wreg     unsigned char 
   822 ;; Auto vars:     Size  Location     Type
   823 ;;  prescaler       1    5[COMMON] unsigned char 
   824 ;; Return value:  Size  Location     Type
   825 ;;                  1    wreg      void 
   826 ;; Registers used:
   827 ;;		wreg, fsr0l, fsr0h, status,2, status,0
   828 ;; Tracked objects:
   829 ;;		On entry : 0/0
   830 ;;		On exit  : 0/0
   831 ;;		Unchanged: 0/0
   832 ;; Data sizes:     COMMON   BANK0   BANK1   BANK3   BANK2
   833 ;;      Params:         0       0       0       0       0
   834 ;;      Locals:         1       0       0       0       0
   835 ;;      Temps:          2       0       0       0       0
   836 ;;      Totals:         3       0       0       0       0
   837 ;;Total ram usage:        3 bytes
   838 ;; Hardware stack levels used: 1
   839 ;; Hardware stack levels required when called: 2
   840 ;; This function calls:
   841 ;;		Nothing
   842 ;; This function is called by:
   843 ;;		_setup
   844 ;; This function uses a non-reentrant model
   845 ;;
   846                           
   847  0080                     _tmr0_init:	
   848                           ;psect for function _tmr0_init
   849                           
   850                           
   851                           ;incstack = 0
   852                           ; Regs used in _tmr0_init: [wreg-fsr0h+status,2+status,0]
   853                           ;tmr0_init@prescaler stored from wreg
   854  0080  00F5               	movwf	tmr0_init@prescaler
   855  0081                     l1038:
   856                           
   857                           ;../lab03.X/tmr0.c: 6:     OPTION_REGbits.T0CS = 0;
   858  0081  1683               	bsf	3,5	;RP0=1, select bank1
   859  0082  1303               	bcf	3,6	;RP1=0, select bank1
   860  0083  1281               	bcf	1,5	;volatile
   861                           
   862                           ;../lab03.X/tmr0.c: 7:     OPTION_REGbits.PSA = 0;
   863  0084  1181               	bcf	1,3	;volatile
   864                           
   865                           ;../lab03.X/tmr0.c: 8:     switch(prescaler){
   866  0085  28AA               	goto	l1058
   867  0086                     l1040:
   868                           
   869                           ;../lab03.X/tmr0.c: 10:             OPTION_REGbits.PS = 0b000;
   870  0086  30F8               	movlw	-8
   871  0087  0581               	andwf	1,f	;volatile
   872                           
   873                           ;../lab03.X/tmr0.c: 11:             break;
   874  0088  28D1               	goto	l1060
   875  0089                     l1042:
   876                           
   877                           ;../lab03.X/tmr0.c: 13:             OPTION_REGbits.PS = 0b001;
   878  0089  0801               	movf	1,w	;volatile
   879  008A  39F8               	andlw	-8
   880  008B  3801               	iorlw	1
   881  008C  0081               	movwf	1	;volatile
   882                           
   883                           ;../lab03.X/tmr0.c: 14:             break;
   884  008D  28D1               	goto	l1060
   885  008E                     l1044:
   886                           
   887                           ;../lab03.X/tmr0.c: 16:             OPTION_REGbits.PS = 0b010;
   888  008E  0801               	movf	1,w	;volatile
   889  008F  39F8               	andlw	-8
   890  0090  3802               	iorlw	2
   891  0091  0081               	movwf	1	;volatile
   892                           
   893                           ;../lab03.X/tmr0.c: 17:             break;
   894  0092  28D1               	goto	l1060
   895  0093                     l1046:
   896                           
   897                           ;../lab03.X/tmr0.c: 19:             OPTION_REGbits.PS = 0b011;
   898  0093  0801               	movf	1,w	;volatile
   899  0094  39F8               	andlw	-8
   900  0095  3803               	iorlw	3
   901  0096  0081               	movwf	1	;volatile
   902                           
   903                           ;../lab03.X/tmr0.c: 20:             break;
   904  0097  28D1               	goto	l1060
   905  0098                     l1048:
   906                           
   907                           ;../lab03.X/tmr0.c: 22:             OPTION_REGbits.PS = 0b100;
   908  0098  0801               	movf	1,w	;volatile
   909  0099  39F8               	andlw	-8
   910  009A  3804               	iorlw	4
   911  009B  0081               	movwf	1	;volatile
   912                           
   913                           ;../lab03.X/tmr0.c: 23:             break;
   914  009C  28D1               	goto	l1060
   915  009D                     l1050:
   916                           
   917                           ;../lab03.X/tmr0.c: 25:             OPTION_REGbits.PS = 0b101;
   918  009D  0801               	movf	1,w	;volatile
   919  009E  39F8               	andlw	-8
   920  009F  3805               	iorlw	5
   921  00A0  0081               	movwf	1	;volatile
   922                           
   923                           ;../lab03.X/tmr0.c: 26:             break;
   924  00A1  28D1               	goto	l1060
   925  00A2                     l1052:
   926                           
   927                           ;../lab03.X/tmr0.c: 28:             OPTION_REGbits.PS = 0b110;
   928  00A2  0801               	movf	1,w	;volatile
   929  00A3  39F8               	andlw	-8
   930  00A4  3806               	iorlw	6
   931  00A5  0081               	movwf	1	;volatile
   932                           
   933                           ;../lab03.X/tmr0.c: 29:             break;
   934  00A6  28D1               	goto	l1060
   935  00A7                     l1054:
   936                           
   937                           ;../lab03.X/tmr0.c: 31:             OPTION_REGbits.PS = 0b111;
   938  00A7  3007               	movlw	7
   939  00A8  0481               	iorwf	1,f	;volatile
   940                           
   941                           ;../lab03.X/tmr0.c: 32:             break;
   942  00A9  28D1               	goto	l1060
   943  00AA                     l1058:
   944  00AA  0875               	movf	tmr0_init@prescaler,w
   945  00AB  00F3               	movwf	??_tmr0_init
   946  00AC  01F4               	clrf	??_tmr0_init+1
   947                           
   948                           ; Switch on 2 bytes has been partitioned into a top level switch of size 1, and 2 sub-sw
      +                          itches
   949                           ; Switch size 1, requested type "simple"
   950                           ; Number of cases is 2, Range of values is 0 to 1
   951                           ; switch strategies available:
   952                           ; Name         Instructions Cycles
   953                           ; simple_byte            7     4 (average)
   954                           ; direct_byte           14     8 (fixed)
   955                           ; jumptable            260     6 (fixed)
   956                           ;	Chosen strategy is simple_byte
   957  00AD  0874               	movf	??_tmr0_init+1,w
   958  00AE  3A00               	xorlw	0	; case 0
   959  00AF  1903               	skipnz
   960  00B0  28B5               	goto	l1334
   961  00B1  3A01               	xorlw	1	; case 1
   962  00B2  1903               	skipnz
   963  00B3  28CC               	goto	l1336
   964  00B4  28D1               	goto	l1060
   965  00B5                     l1334:
   966                           
   967                           ; Switch size 1, requested type "simple"
   968                           ; Number of cases is 7, Range of values is 2 to 128
   969                           ; switch strategies available:
   970                           ; Name         Instructions Cycles
   971                           ; simple_byte           22    12 (average)
   972                           ; jumptable            263     9 (fixed)
   973                           ;	Chosen strategy is simple_byte
   974  00B5  0873               	movf	??_tmr0_init,w
   975  00B6  3A02               	xorlw	2	; case 2
   976  00B7  1903               	skipnz
   977  00B8  2886               	goto	l1040
   978  00B9  3A06               	xorlw	6	; case 4
   979  00BA  1903               	skipnz
   980  00BB  2889               	goto	l1042
   981  00BC  3A0C               	xorlw	12	; case 8
   982  00BD  1903               	skipnz
   983  00BE  288E               	goto	l1044
   984  00BF  3A18               	xorlw	24	; case 16
   985  00C0  1903               	skipnz
   986  00C1  2893               	goto	l1046
   987  00C2  3A30               	xorlw	48	; case 32
   988  00C3  1903               	skipnz
   989  00C4  2898               	goto	l1048
   990  00C5  3A60               	xorlw	96	; case 64
   991  00C6  1903               	skipnz
   992  00C7  289D               	goto	l1050
   993  00C8  3AC0               	xorlw	192	; case 128
   994  00C9  1903               	skipnz
   995  00CA  28A2               	goto	l1052
   996  00CB  28D1               	goto	l1060
   997  00CC                     l1336:
   998                           
   999                           ; Switch size 1, requested type "simple"
  1000                           ; Number of cases is 1, Range of values is 0 to 0
  1001                           ; switch strategies available:
  1002                           ; Name         Instructions Cycles
  1003                           ; simple_byte            4     3 (average)
  1004                           ; direct_byte           11     8 (fixed)
  1005                           ; jumptable            260     6 (fixed)
  1006                           ;	Chosen strategy is simple_byte
  1007  00CC  0873               	movf	??_tmr0_init,w
  1008  00CD  3A00               	xorlw	0	; case 0
  1009  00CE  1903               	skipnz
  1010  00CF  28A7               	goto	l1054
  1011  00D0  28D1               	goto	l1060
  1012  00D1                     l1060:
  1013                           
  1014                           ;../lab03.X/tmr0.c: 36:     TMR0 = 61;
  1015  00D1  303D               	movlw	61
  1016  00D2  1283               	bcf	3,5	;RP0=0, select bank0
  1017  00D3  1303               	bcf	3,6	;RP1=0, select bank0
  1018  00D4  0081               	movwf	1	;volatile
  1019  00D5                     l1062:
  1020                           
  1021                           ;../lab03.X/tmr0.c: 37:     INTCONbits.T0IF = 0;
  1022  00D5  110B               	bcf	11,2	;volatile
  1023  00D6                     l127:
  1024  00D6  0008               	return
  1025  00D7                     __end_of_tmr0_init:
  1026                           
  1027                           	psect	text3
  1028  0146                     __ptext3:	
  1029 ;; *************** function _int_osc_MHz *****************
  1030 ;; Defined at:
  1031 ;;		line 4 in file "../lab02.X/oscilador_1.c"
  1032 ;; Parameters:    Size  Location     Type
  1033 ;;  freq            1    wreg     unsigned char 
  1034 ;; Auto vars:     Size  Location     Type
  1035 ;;  freq            1    5[COMMON] unsigned char 
  1036 ;; Return value:  Size  Location     Type
  1037 ;;                  1    wreg      void 
  1038 ;; Registers used:
  1039 ;;		wreg, fsr0l, fsr0h, status,2, status,0
  1040 ;; Tracked objects:
  1041 ;;		On entry : 0/0
  1042 ;;		On exit  : 0/0
  1043 ;;		Unchanged: 0/0
  1044 ;; Data sizes:     COMMON   BANK0   BANK1   BANK3   BANK2
  1045 ;;      Params:         0       0       0       0       0
  1046 ;;      Locals:         1       0       0       0       0
  1047 ;;      Temps:          2       0       0       0       0
  1048 ;;      Totals:         3       0       0       0       0
  1049 ;;Total ram usage:        3 bytes
  1050 ;; Hardware stack levels used: 1
  1051 ;; Hardware stack levels required when called: 2
  1052 ;; This function calls:
  1053 ;;		Nothing
  1054 ;; This function is called by:
  1055 ;;		_setup
  1056 ;; This function uses a non-reentrant model
  1057 ;;
  1058                           
  1059  0146                     _int_osc_MHz:	
  1060                           ;psect for function _int_osc_MHz
  1061                           
  1062                           
  1063                           ;incstack = 0
  1064                           ; Regs used in _int_osc_MHz: [wreg-fsr0h+status,2+status,0]
  1065                           ;int_osc_MHz@freq stored from wreg
  1066  0146  00F5               	movwf	int_osc_MHz@freq
  1067  0147                     l1018:
  1068                           
  1069                           ;../lab02.X/oscilador_1.c: 5:     OSCCONbits.SCS = 1;
  1070  0147  1683               	bsf	3,5	;RP0=1, select bank1
  1071  0148  1303               	bcf	3,6	;RP1=0, select bank1
  1072  0149  140F               	bsf	15,0	;volatile
  1073                           
  1074                           ;../lab02.X/oscilador_1.c: 6:     switch(freq){
  1075  014A  2960               	goto	l1032
  1076  014B                     l1020:
  1077                           
  1078                           ;../lab02.X/oscilador_1.c: 8:             OSCCONbits.IRCF = 0b100;
  1079  014B  080F               	movf	15,w	;volatile
  1080  014C  398F               	andlw	-113
  1081  014D  3840               	iorlw	64
  1082  014E  008F               	movwf	15	;volatile
  1083                           
  1084                           ;../lab02.X/oscilador_1.c: 9:             break;
  1085  014F  2976               	goto	l142
  1086  0150                     l1022:
  1087                           
  1088                           ;../lab02.X/oscilador_1.c: 11:             OSCCONbits.IRCF = 0b101;
  1089  0150  080F               	movf	15,w	;volatile
  1090  0151  398F               	andlw	-113
  1091  0152  3850               	iorlw	80
  1092  0153  008F               	movwf	15	;volatile
  1093                           
  1094                           ;../lab02.X/oscilador_1.c: 12:             break;
  1095  0154  2976               	goto	l142
  1096  0155                     l1024:
  1097                           
  1098                           ;../lab02.X/oscilador_1.c: 14:             OSCCONbits.IRCF = 0b110;
  1099  0155  080F               	movf	15,w	;volatile
  1100  0156  398F               	andlw	-113
  1101  0157  3860               	iorlw	96
  1102  0158  008F               	movwf	15	;volatile
  1103                           
  1104                           ;../lab02.X/oscilador_1.c: 15:             break;
  1105  0159  2976               	goto	l142
  1106  015A                     l1026:
  1107                           
  1108                           ;../lab02.X/oscilador_1.c: 17:             OSCCONbits.IRCF = 0b111;
  1109  015A  3070               	movlw	112
  1110  015B  048F               	iorwf	15,f	;volatile
  1111                           
  1112                           ;../lab02.X/oscilador_1.c: 18:             break;
  1113  015C  2976               	goto	l142
  1114  015D                     l1028:
  1115                           
  1116                           ;../lab02.X/oscilador_1.c: 20:             OSCCONbits.IRCF = 0b111;
  1117  015D  3070               	movlw	112
  1118  015E  048F               	iorwf	15,f	;volatile
  1119                           
  1120                           ;../lab02.X/oscilador_1.c: 21:             break;
  1121  015F  2976               	goto	l142
  1122  0160                     l1032:
  1123  0160  0875               	movf	int_osc_MHz@freq,w
  1124  0161  00F3               	movwf	??_int_osc_MHz
  1125  0162  01F4               	clrf	??_int_osc_MHz+1
  1126                           
  1127                           ; Switch on 2 bytes has been partitioned into a top level switch of size 1, and 1 sub-sw
      +                          itches
  1128                           ; Switch size 1, requested type "simple"
  1129                           ; Number of cases is 1, Range of values is 0 to 0
  1130                           ; switch strategies available:
  1131                           ; Name         Instructions Cycles
  1132                           ; simple_byte            4     3 (average)
  1133                           ; direct_byte           11     8 (fixed)
  1134                           ; jumptable            260     6 (fixed)
  1135                           ;	Chosen strategy is simple_byte
  1136  0163  0874               	movf	??_int_osc_MHz+1,w
  1137  0164  3A00               	xorlw	0	; case 0
  1138  0165  1903               	skipnz
  1139  0166  2968               	goto	l1338
  1140  0167  295D               	goto	l1028
  1141  0168                     l1338:
  1142                           
  1143                           ; Switch size 1, requested type "simple"
  1144                           ; Number of cases is 4, Range of values is 1 to 8
  1145                           ; switch strategies available:
  1146                           ; Name         Instructions Cycles
  1147                           ; simple_byte           13     7 (average)
  1148                           ; direct_byte           35    11 (fixed)
  1149                           ; jumptable            263     9 (fixed)
  1150                           ;	Chosen strategy is simple_byte
  1151  0168  0873               	movf	??_int_osc_MHz,w
  1152  0169  3A01               	xorlw	1	; case 1
  1153  016A  1903               	skipnz
  1154  016B  294B               	goto	l1020
  1155  016C  3A03               	xorlw	3	; case 2
  1156  016D  1903               	skipnz
  1157  016E  2950               	goto	l1022
  1158  016F  3A06               	xorlw	6	; case 4
  1159  0170  1903               	skipnz
  1160  0171  2955               	goto	l1024
  1161  0172  3A0C               	xorlw	12	; case 8
  1162  0173  1903               	skipnz
  1163  0174  295A               	goto	l1026
  1164  0175  295D               	goto	l1028
  1165  0176                     l142:
  1166  0176  0008               	return
  1167  0177                     __end_of_int_osc_MHz:
  1168                           
  1169                           	psect	text4
  1170  00D7                     __ptext4:	
  1171 ;; *************** function _I2C_Master_Init *****************
  1172 ;; Defined at:
  1173 ;;		line 14 in file "I2C.c"
  1174 ;; Parameters:    Size  Location     Type
  1175 ;;  c               4    8[BANK0 ] const unsigned long 
  1176 ;; Auto vars:     Size  Location     Type
  1177 ;;		None
  1178 ;; Return value:  Size  Location     Type
  1179 ;;                  1    wreg      void 
  1180 ;; Registers used:
  1181 ;;		wreg, status,2, status,0, pclath, cstack
  1182 ;; Tracked objects:
  1183 ;;		On entry : 0/0
  1184 ;;		On exit  : 0/0
  1185 ;;		Unchanged: 0/0
  1186 ;; Data sizes:     COMMON   BANK0   BANK1   BANK3   BANK2
  1187 ;;      Params:         0       4       0       0       0
  1188 ;;      Locals:         0       0       0       0       0
  1189 ;;      Temps:          0       4       0       0       0
  1190 ;;      Totals:         0       8       0       0       0
  1191 ;;Total ram usage:        8 bytes
  1192 ;; Hardware stack levels used: 1
  1193 ;; Hardware stack levels required when called: 3
  1194 ;; This function calls:
  1195 ;;		___lldiv
  1196 ;; This function is called by:
  1197 ;;		_setup
  1198 ;; This function uses a non-reentrant model
  1199 ;;
  1200                           
  1201  00D7                     _I2C_Master_Init:	
  1202                           ;psect for function _I2C_Master_Init
  1203                           
  1204  00D7                     l1232:	
  1205                           ;incstack = 0
  1206                           ; Regs used in _I2C_Master_Init: [wreg+status,2+status,0+pclath+cstack]
  1207                           
  1208                           
  1209                           ;I2C.c: 14: void I2C_Master_Init(const unsigned long c);I2C.c: 15: {;I2C.c: 16:     SSPC
      +                          ON = 0b00101000;
  1210  00D7  3028               	movlw	40
  1211  00D8  1283               	bcf	3,5	;RP0=0, select bank0
  1212  00D9  1303               	bcf	3,6	;RP1=0, select bank0
  1213  00DA  0094               	movwf	20	;volatile
  1214  00DB                     l1234:
  1215                           
  1216                           ;I2C.c: 17:     SSPCON2 = 0;
  1217  00DB  1683               	bsf	3,5	;RP0=1, select bank1
  1218  00DC  1303               	bcf	3,6	;RP1=0, select bank1
  1219  00DD  0191               	clrf	17	;volatile
  1220  00DE                     l1236:
  1221                           
  1222                           ;I2C.c: 18:     SSPADD = (8000000/(4*c))-1;
  1223  00DE  1283               	bcf	3,5	;RP0=0, select bank0
  1224  00DF  1303               	bcf	3,6	;RP1=0, select bank0
  1225  00E0  0828               	movf	I2C_Master_Init@c,w
  1226  00E1  00AC               	movwf	??_I2C_Master_Init
  1227  00E2  0829               	movf	I2C_Master_Init@c+1,w
  1228  00E3  00AD               	movwf	??_I2C_Master_Init+1
  1229  00E4  082A               	movf	I2C_Master_Init@c+2,w
  1230  00E5  00AE               	movwf	??_I2C_Master_Init+2
  1231  00E6  082B               	movf	I2C_Master_Init@c+3,w
  1232  00E7  00AF               	movwf	??_I2C_Master_Init+3
  1233  00E8  3002               	movlw	2
  1234  00E9                     u345:
  1235  00E9  1003               	clrc
  1236  00EA  0DAC               	rlf	??_I2C_Master_Init,f
  1237  00EB  0DAD               	rlf	??_I2C_Master_Init+1,f
  1238  00EC  0DAE               	rlf	??_I2C_Master_Init+2,f
  1239  00ED  0DAF               	rlf	??_I2C_Master_Init+3,f
  1240  00EE                     u340:
  1241  00EE  3EFF               	addlw	-1
  1242  00EF  1D03               	skipz
  1243  00F0  28E9               	goto	u345
  1244  00F1  082F               	movf	??_I2C_Master_Init+3,w
  1245  00F2  00A3               	movwf	___lldiv@divisor+3
  1246  00F3  082E               	movf	??_I2C_Master_Init+2,w
  1247  00F4  00A2               	movwf	___lldiv@divisor+2
  1248  00F5  082D               	movf	??_I2C_Master_Init+1,w
  1249  00F6  00A1               	movwf	___lldiv@divisor+1
  1250  00F7  082C               	movf	??_I2C_Master_Init,w
  1251  00F8  00A0               	movwf	___lldiv@divisor
  1252  00F9  3000               	movlw	0
  1253  00FA  00A7               	movwf	___lldiv@dividend+3
  1254  00FB  307A               	movlw	122
  1255  00FC  00A6               	movwf	___lldiv@dividend+2
  1256  00FD  3012               	movlw	18
  1257  00FE  00A5               	movwf	___lldiv@dividend+1
  1258  00FF  3000               	movlw	0
  1259  0100  00A4               	movwf	___lldiv@dividend
  1260  0101  120A  118A  2018  120A  118A  	fcall	___lldiv
  1261  0106  1283               	bcf	3,5	;RP0=0, select bank0
  1262  0107  1303               	bcf	3,6	;RP1=0, select bank0
  1263  0108  0820               	movf	?___lldiv,w
  1264  0109  3EFF               	addlw	255
  1265  010A  1683               	bsf	3,5	;RP0=1, select bank1
  1266  010B  1303               	bcf	3,6	;RP1=0, select bank1
  1267  010C  0093               	movwf	19	;volatile
  1268  010D                     l1238:
  1269                           
  1270                           ;I2C.c: 19:     SSPSTAT = 0;
  1271  010D  0194               	clrf	20	;volatile
  1272  010E                     l1240:
  1273                           
  1274                           ;I2C.c: 20:     TRISCbits.TRISC3 = 1;
  1275  010E  1587               	bsf	7,3	;volatile
  1276  010F                     l1242:
  1277                           
  1278                           ;I2C.c: 21:     TRISCbits.TRISC4 = 1;
  1279  010F  1607               	bsf	7,4	;volatile
  1280  0110                     l29:
  1281  0110  0008               	return
  1282  0111                     __end_of_I2C_Master_Init:
  1283                           
  1284                           	psect	text5
  1285  0018                     __ptext5:	
  1286 ;; *************** function ___lldiv *****************
  1287 ;; Defined at:
  1288 ;;		line 5 in file "C:\Program Files\Microchip\xc8\v2.35\pic\sources\c90\common\__lldiv.c"
  1289 ;; Parameters:    Size  Location     Type
  1290 ;;  divisor         4    0[BANK0 ] unsigned long 
  1291 ;;  dividend        4    4[BANK0 ] unsigned long 
  1292 ;; Auto vars:     Size  Location     Type
  1293 ;;  quotient        4    4[COMMON] unsigned long 
  1294 ;;  counter         1    8[COMMON] unsigned char 
  1295 ;; Return value:  Size  Location     Type
  1296 ;;                  4    0[BANK0 ] unsigned long 
  1297 ;; Registers used:
  1298 ;;		wreg, status,2, status,0
  1299 ;; Tracked objects:
  1300 ;;		On entry : 0/0
  1301 ;;		On exit  : 0/0
  1302 ;;		Unchanged: 0/0
  1303 ;; Data sizes:     COMMON   BANK0   BANK1   BANK3   BANK2
  1304 ;;      Params:         0       8       0       0       0
  1305 ;;      Locals:         5       0       0       0       0
  1306 ;;      Temps:          1       0       0       0       0
  1307 ;;      Totals:         6       8       0       0       0
  1308 ;;Total ram usage:       14 bytes
  1309 ;; Hardware stack levels used: 1
  1310 ;; Hardware stack levels required when called: 2
  1311 ;; This function calls:
  1312 ;;		Nothing
  1313 ;; This function is called by:
  1314 ;;		_I2C_Master_Init
  1315 ;; This function uses a non-reentrant model
  1316 ;;
  1317                           
  1318  0018                     ___lldiv:	
  1319                           ;psect for function ___lldiv
  1320                           
  1321  0018                     l1208:	
  1322                           ;incstack = 0
  1323                           ; Regs used in ___lldiv: [wreg+status,2+status,0]
  1324                           
  1325  0018  3000               	movlw	0
  1326  0019  00F7               	movwf	___lldiv@quotient+3
  1327  001A  3000               	movlw	0
  1328  001B  00F6               	movwf	___lldiv@quotient+2
  1329  001C  3000               	movlw	0
  1330  001D  00F5               	movwf	___lldiv@quotient+1
  1331  001E  3000               	movlw	0
  1332  001F  00F4               	movwf	___lldiv@quotient
  1333  0020  1283               	bcf	3,5	;RP0=0, select bank0
  1334  0021  1303               	bcf	3,6	;RP1=0, select bank0
  1335  0022  0823               	movf	___lldiv@divisor+3,w
  1336  0023  0422               	iorwf	___lldiv@divisor+2,w
  1337  0024  0421               	iorwf	___lldiv@divisor+1,w
  1338  0025  0420               	iorwf	___lldiv@divisor,w
  1339  0026  1903               	skipnz
  1340  0027  2829               	goto	u271
  1341  0028  282A               	goto	u270
  1342  0029                     u271:
  1343  0029  2877               	goto	l1228
  1344  002A                     u270:
  1345  002A                     l1210:
  1346  002A  01F8               	clrf	___lldiv@counter
  1347  002B  0AF8               	incf	___lldiv@counter,f
  1348  002C  283A               	goto	l1214
  1349  002D                     l1212:
  1350  002D  3001               	movlw	1
  1351  002E  00F3               	movwf	??___lldiv
  1352  002F                     u285:
  1353  002F  1003               	clrc
  1354  0030  0DA0               	rlf	___lldiv@divisor,f
  1355  0031  0DA1               	rlf	___lldiv@divisor+1,f
  1356  0032  0DA2               	rlf	___lldiv@divisor+2,f
  1357  0033  0DA3               	rlf	___lldiv@divisor+3,f
  1358  0034  0BF3               	decfsz	??___lldiv,f
  1359  0035  282F               	goto	u285
  1360  0036  3001               	movlw	1
  1361  0037  00F3               	movwf	??___lldiv
  1362  0038  0873               	movf	??___lldiv,w
  1363  0039  07F8               	addwf	___lldiv@counter,f
  1364  003A                     l1214:
  1365  003A  1FA3               	btfss	___lldiv@divisor+3,7
  1366  003B  283D               	goto	u291
  1367  003C  283E               	goto	u290
  1368  003D                     u291:
  1369  003D  282D               	goto	l1212
  1370  003E                     u290:
  1371  003E                     l1216:
  1372  003E  3001               	movlw	1
  1373  003F  00F3               	movwf	??___lldiv
  1374  0040                     u305:
  1375  0040  1003               	clrc
  1376  0041  0DF4               	rlf	___lldiv@quotient,f
  1377  0042  0DF5               	rlf	___lldiv@quotient+1,f
  1378  0043  0DF6               	rlf	___lldiv@quotient+2,f
  1379  0044  0DF7               	rlf	___lldiv@quotient+3,f
  1380  0045  0BF3               	decfsz	??___lldiv,f
  1381  0046  2840               	goto	u305
  1382  0047                     l1218:
  1383  0047  0823               	movf	___lldiv@divisor+3,w
  1384  0048  0227               	subwf	___lldiv@dividend+3,w
  1385  0049  1D03               	skipz
  1386  004A  2855               	goto	u315
  1387  004B  0822               	movf	___lldiv@divisor+2,w
  1388  004C  0226               	subwf	___lldiv@dividend+2,w
  1389  004D  1D03               	skipz
  1390  004E  2855               	goto	u315
  1391  004F  0821               	movf	___lldiv@divisor+1,w
  1392  0050  0225               	subwf	___lldiv@dividend+1,w
  1393  0051  1D03               	skipz
  1394  0052  2855               	goto	u315
  1395  0053  0820               	movf	___lldiv@divisor,w
  1396  0054  0224               	subwf	___lldiv@dividend,w
  1397  0055                     u315:
  1398  0055  1C03               	skipc
  1399  0056  2858               	goto	u311
  1400  0057  2859               	goto	u310
  1401  0058                     u311:
  1402  0058  2868               	goto	l1224
  1403  0059                     u310:
  1404  0059                     l1220:
  1405  0059  0820               	movf	___lldiv@divisor,w
  1406  005A  02A4               	subwf	___lldiv@dividend,f
  1407  005B  0821               	movf	___lldiv@divisor+1,w
  1408  005C  1C03               	skipc
  1409  005D  0F21               	incfsz	___lldiv@divisor+1,w
  1410  005E  02A5               	subwf	___lldiv@dividend+1,f
  1411  005F  0822               	movf	___lldiv@divisor+2,w
  1412  0060  1C03               	skipc
  1413  0061  0F22               	incfsz	___lldiv@divisor+2,w
  1414  0062  02A6               	subwf	___lldiv@dividend+2,f
  1415  0063  0823               	movf	___lldiv@divisor+3,w
  1416  0064  1C03               	skipc
  1417  0065  0F23               	incfsz	___lldiv@divisor+3,w
  1418  0066  02A7               	subwf	___lldiv@dividend+3,f
  1419  0067                     l1222:
  1420  0067  1474               	bsf	___lldiv@quotient,0
  1421  0068                     l1224:
  1422  0068  3001               	movlw	1
  1423  0069                     u325:
  1424  0069  1003               	clrc
  1425  006A  0CA3               	rrf	___lldiv@divisor+3,f
  1426  006B  0CA2               	rrf	___lldiv@divisor+2,f
  1427  006C  0CA1               	rrf	___lldiv@divisor+1,f
  1428  006D  0CA0               	rrf	___lldiv@divisor,f
  1429  006E  3EFF               	addlw	-1
  1430  006F  1D03               	skipz
  1431  0070  2869               	goto	u325
  1432  0071                     l1226:
  1433  0071  3001               	movlw	1
  1434  0072  02F8               	subwf	___lldiv@counter,f
  1435  0073  1D03               	btfss	3,2
  1436  0074  2876               	goto	u331
  1437  0075  2877               	goto	u330
  1438  0076                     u331:
  1439  0076  283E               	goto	l1216
  1440  0077                     u330:
  1441  0077                     l1228:
  1442  0077  0877               	movf	___lldiv@quotient+3,w
  1443  0078  00A3               	movwf	?___lldiv+3
  1444  0079  0876               	movf	___lldiv@quotient+2,w
  1445  007A  00A2               	movwf	?___lldiv+2
  1446  007B  0875               	movf	___lldiv@quotient+1,w
  1447  007C  00A1               	movwf	?___lldiv+1
  1448  007D  0874               	movf	___lldiv@quotient,w
  1449  007E  00A0               	movwf	?___lldiv
  1450  007F                     l264:
  1451  007F  0008               	return
  1452  0080                     __end_of___lldiv:
  1453                           
  1454                           	psect	text6
  1455  01D3                     __ptext6:	
  1456 ;; *************** function _I2C_Master_Write *****************
  1457 ;; Defined at:
  1458 ;;		line 47 in file "I2C.c"
  1459 ;; Parameters:    Size  Location     Type
  1460 ;;  d               2    3[COMMON] unsigned int 
  1461 ;; Auto vars:     Size  Location     Type
  1462 ;;		None
  1463 ;; Return value:  Size  Location     Type
  1464 ;;                  1    wreg      void 
  1465 ;; Registers used:
  1466 ;;		wreg, status,2, status,0, pclath, cstack
  1467 ;; Tracked objects:
  1468 ;;		On entry : 0/0
  1469 ;;		On exit  : 0/0
  1470 ;;		Unchanged: 0/0
  1471 ;; Data sizes:     COMMON   BANK0   BANK1   BANK3   BANK2
  1472 ;;      Params:         2       0       0       0       0
  1473 ;;      Locals:         0       0       0       0       0
  1474 ;;      Temps:          0       0       0       0       0
  1475 ;;      Totals:         2       0       0       0       0
  1476 ;;Total ram usage:        2 bytes
  1477 ;; Hardware stack levels used: 1
  1478 ;; Hardware stack levels required when called: 3
  1479 ;; This function calls:
  1480 ;;		_I2C_Master_Wait
  1481 ;; This function is called by:
  1482 ;;		_main
  1483 ;; This function uses a non-reentrant model
  1484 ;;
  1485                           
  1486  01D3                     _I2C_Master_Write:	
  1487                           ;psect for function _I2C_Master_Write
  1488                           
  1489  01D3                     l1080:	
  1490                           ;incstack = 0
  1491                           ; Regs used in _I2C_Master_Write: [wreg+status,2+status,0+pclath+cstack]
  1492                           
  1493                           
  1494                           ;I2C.c: 47: void I2C_Master_Write(unsigned d);I2C.c: 48: {;I2C.c: 49:     I2C_Master_Wai
      +                          t();
  1495  01D3  120A  118A  21C6  120A  118A  	fcall	_I2C_Master_Wait
  1496  01D8                     l1082:
  1497                           
  1498                           ;I2C.c: 50:     SSPBUF = d;
  1499  01D8  0873               	movf	I2C_Master_Write@d,w
  1500  01D9  1283               	bcf	3,5	;RP0=0, select bank0
  1501  01DA  1303               	bcf	3,6	;RP1=0, select bank0
  1502  01DB  0093               	movwf	19	;volatile
  1503  01DC                     l47:
  1504  01DC  0008               	return
  1505  01DD                     __end_of_I2C_Master_Write:
  1506                           
  1507                           	psect	text7
  1508  01DD                     __ptext7:	
  1509 ;; *************** function _I2C_Master_Stop *****************
  1510 ;; Defined at:
  1511 ;;		line 41 in file "I2C.c"
  1512 ;; Parameters:    Size  Location     Type
  1513 ;;		None
  1514 ;; Auto vars:     Size  Location     Type
  1515 ;;		None
  1516 ;; Return value:  Size  Location     Type
  1517 ;;                  1    wreg      void 
  1518 ;; Registers used:
  1519 ;;		wreg, status,2, status,0, pclath, cstack
  1520 ;; Tracked objects:
  1521 ;;		On entry : 0/0
  1522 ;;		On exit  : 0/0
  1523 ;;		Unchanged: 0/0
  1524 ;; Data sizes:     COMMON   BANK0   BANK1   BANK3   BANK2
  1525 ;;      Params:         0       0       0       0       0
  1526 ;;      Locals:         0       0       0       0       0
  1527 ;;      Temps:          0       0       0       0       0
  1528 ;;      Totals:         0       0       0       0       0
  1529 ;;Total ram usage:        0 bytes
  1530 ;; Hardware stack levels used: 1
  1531 ;; Hardware stack levels required when called: 3
  1532 ;; This function calls:
  1533 ;;		_I2C_Master_Wait
  1534 ;; This function is called by:
  1535 ;;		_main
  1536 ;; This function uses a non-reentrant model
  1537 ;;
  1538                           
  1539  01DD                     _I2C_Master_Stop:	
  1540                           ;psect for function _I2C_Master_Stop
  1541                           
  1542  01DD                     l1076:	
  1543                           ;incstack = 0
  1544                           ; Regs used in _I2C_Master_Stop: [wreg+status,2+status,0+pclath+cstack]
  1545                           
  1546                           
  1547                           ;I2C.c: 43:     I2C_Master_Wait();
  1548  01DD  120A  118A  21C6  120A  118A  	fcall	_I2C_Master_Wait
  1549  01E2                     l1078:
  1550                           
  1551                           ;I2C.c: 44:     SSPCON2bits.PEN = 1;
  1552  01E2  1683               	bsf	3,5	;RP0=1, select bank1
  1553  01E3  1303               	bcf	3,6	;RP1=0, select bank1
  1554  01E4  1511               	bsf	17,2	;volatile
  1555  01E5                     l44:
  1556  01E5  0008               	return
  1557  01E6                     __end_of_I2C_Master_Stop:
  1558                           
  1559                           	psect	text8
  1560  01E6                     __ptext8:	
  1561 ;; *************** function _I2C_Master_Start *****************
  1562 ;; Defined at:
  1563 ;;		line 29 in file "I2C.c"
  1564 ;; Parameters:    Size  Location     Type
  1565 ;;		None
  1566 ;; Auto vars:     Size  Location     Type
  1567 ;;		None
  1568 ;; Return value:  Size  Location     Type
  1569 ;;                  1    wreg      void 
  1570 ;; Registers used:
  1571 ;;		wreg, status,2, status,0, pclath, cstack
  1572 ;; Tracked objects:
  1573 ;;		On entry : 0/0
  1574 ;;		On exit  : 0/0
  1575 ;;		Unchanged: 0/0
  1576 ;; Data sizes:     COMMON   BANK0   BANK1   BANK3   BANK2
  1577 ;;      Params:         0       0       0       0       0
  1578 ;;      Locals:         0       0       0       0       0
  1579 ;;      Temps:          0       0       0       0       0
  1580 ;;      Totals:         0       0       0       0       0
  1581 ;;Total ram usage:        0 bytes
  1582 ;; Hardware stack levels used: 1
  1583 ;; Hardware stack levels required when called: 3
  1584 ;; This function calls:
  1585 ;;		_I2C_Master_Wait
  1586 ;; This function is called by:
  1587 ;;		_main
  1588 ;; This function uses a non-reentrant model
  1589 ;;
  1590                           
  1591  01E6                     _I2C_Master_Start:	
  1592                           ;psect for function _I2C_Master_Start
  1593                           
  1594  01E6                     l1072:	
  1595                           ;incstack = 0
  1596                           ; Regs used in _I2C_Master_Start: [wreg+status,2+status,0+pclath+cstack]
  1597                           
  1598                           
  1599                           ;I2C.c: 31:     I2C_Master_Wait();
  1600  01E6  120A  118A  21C6  120A  118A  	fcall	_I2C_Master_Wait
  1601  01EB                     l1074:
  1602                           
  1603                           ;I2C.c: 32:     SSPCON2bits.SEN = 1;
  1604  01EB  1683               	bsf	3,5	;RP0=1, select bank1
  1605  01EC  1303               	bcf	3,6	;RP1=0, select bank1
  1606  01ED  1411               	bsf	17,0	;volatile
  1607  01EE                     l38:
  1608  01EE  0008               	return
  1609  01EF                     __end_of_I2C_Master_Start:
  1610                           
  1611                           	psect	text9
  1612  01C6                     __ptext9:	
  1613 ;; *************** function _I2C_Master_Wait *****************
  1614 ;; Defined at:
  1615 ;;		line 24 in file "I2C.c"
  1616 ;; Parameters:    Size  Location     Type
  1617 ;;		None
  1618 ;; Auto vars:     Size  Location     Type
  1619 ;;		None
  1620 ;; Return value:  Size  Location     Type
  1621 ;;                  1    wreg      void 
  1622 ;; Registers used:
  1623 ;;		wreg, status,2
  1624 ;; Tracked objects:
  1625 ;;		On entry : 0/0
  1626 ;;		On exit  : 0/0
  1627 ;;		Unchanged: 0/0
  1628 ;; Data sizes:     COMMON   BANK0   BANK1   BANK3   BANK2
  1629 ;;      Params:         0       0       0       0       0
  1630 ;;      Locals:         0       0       0       0       0
  1631 ;;      Temps:          0       0       0       0       0
  1632 ;;      Totals:         0       0       0       0       0
  1633 ;;Total ram usage:        0 bytes
  1634 ;; Hardware stack levels used: 1
  1635 ;; Hardware stack levels required when called: 2
  1636 ;; This function calls:
  1637 ;;		Nothing
  1638 ;; This function is called by:
  1639 ;;		_I2C_Master_Start
  1640 ;;		_I2C_Master_Stop
  1641 ;;		_I2C_Master_Write
  1642 ;;		_I2C_Master_RepeatedStart
  1643 ;;		_I2C_Master_Read
  1644 ;; This function uses a non-reentrant model
  1645 ;;
  1646                           
  1647  01C6                     _I2C_Master_Wait:	
  1648                           ;psect for function _I2C_Master_Wait
  1649                           
  1650  01C6                     l1014:	
  1651                           ;incstack = 0
  1652                           ; Regs used in _I2C_Master_Wait: [wreg+status,2]
  1653                           
  1654  01C6                     l32:	
  1655                           ;I2C.c: 26:     while ((SSPSTAT & 0x04) || (SSPCON2 & 0x1F));
  1656                           
  1657  01C6  1683               	bsf	3,5	;RP0=1, select bank1
  1658  01C7  1303               	bcf	3,6	;RP1=0, select bank1
  1659  01C8  1914               	btfsc	20,2	;volatile
  1660  01C9  29CB               	goto	u221
  1661  01CA  29CC               	goto	u220
  1662  01CB                     u221:
  1663  01CB  29C6               	goto	l32
  1664  01CC                     u220:
  1665  01CC                     l1016:
  1666  01CC  0811               	movf	17,w	;volatile
  1667  01CD  391F               	andlw	31
  1668  01CE  1D03               	btfss	3,2
  1669  01CF  29D1               	goto	u231
  1670  01D0  29D2               	goto	u230
  1671  01D1                     u231:
  1672  01D1  29C6               	goto	l32
  1673  01D2                     u230:
  1674  01D2                     l35:
  1675  01D2  0008               	return
  1676  01D3                     __end_of_I2C_Master_Wait:
  1677                           
  1678                           	psect	text10
  1679  01A1                     __ptext10:	
  1680 ;; *************** function _isr *****************
  1681 ;; Defined at:
  1682 ;;		line 46 in file "main_ma.c"
  1683 ;; Parameters:    Size  Location     Type
  1684 ;;		None
  1685 ;; Auto vars:     Size  Location     Type
  1686 ;;		None
  1687 ;; Return value:  Size  Location     Type
  1688 ;;                  1    wreg      void 
  1689 ;; Registers used:
  1690 ;;		wreg, status,2, status,0, pclath, cstack
  1691 ;; Tracked objects:
  1692 ;;		On entry : 0/0
  1693 ;;		On exit  : 0/0
  1694 ;;		Unchanged: 0/0
  1695 ;; Data sizes:     COMMON   BANK0   BANK1   BANK3   BANK2
  1696 ;;      Params:         0       0       0       0       0
  1697 ;;      Locals:         0       0       0       0       0
  1698 ;;      Temps:          3       0       0       0       0
  1699 ;;      Totals:         3       0       0       0       0
  1700 ;;Total ram usage:        3 bytes
  1701 ;; Hardware stack levels used: 1
  1702 ;; Hardware stack levels required when called: 1
  1703 ;; This function calls:
  1704 ;;		_tmr0_reload
  1705 ;; This function is called by:
  1706 ;;		Interrupt level 1
  1707 ;; This function uses a non-reentrant model
  1708 ;;
  1709                           
  1710  01A1                     _isr:	
  1711                           ;psect for function _isr
  1712                           
  1713  01A1                     i1l1122:
  1714                           
  1715                           ;main_ma.c: 47:     if(INTCONbits.T0IF){
  1716  01A1  1D0B               	btfss	11,2	;volatile
  1717  01A2  29A4               	goto	u25_21
  1718  01A3  29A5               	goto	u25_20
  1719  01A4                     u25_21:
  1720  01A4  29BA               	goto	i1l1132
  1721  01A5                     u25_20:
  1722  01A5                     i1l1124:
  1723                           
  1724                           ;main_ma.c: 48:             cont++;
  1725  01A5  3001               	movlw	1
  1726  01A6  00F0               	movwf	??_isr
  1727  01A7  0870               	movf	??_isr,w
  1728  01A8  07FA               	addwf	_cont,f
  1729                           
  1730                           ;main_ma.c: 49:             if (cont == 18){
  1731  01A9  3012               	movlw	18
  1732  01AA  067A               	xorwf	_cont,w
  1733  01AB  1D03               	btfss	3,2
  1734  01AC  29AE               	goto	u26_21
  1735  01AD  29AF               	goto	u26_20
  1736  01AE                     u26_21:
  1737  01AE  29B6               	goto	i1l1130
  1738  01AF                     u26_20:
  1739  01AF                     i1l1126:
  1740                           
  1741                           ;main_ma.c: 50:                 cont = 0;
  1742  01AF  01FA               	clrf	_cont
  1743  01B0                     i1l1128:
  1744                           
  1745                           ;main_ma.c: 51:                 cont2++;
  1746  01B0  3001               	movlw	1
  1747  01B1  00F0               	movwf	??_isr
  1748  01B2  0870               	movf	??_isr,w
  1749  01B3  1283               	bcf	3,5	;RP0=0, select bank0
  1750  01B4  1303               	bcf	3,6	;RP1=0, select bank0
  1751  01B5  07B2               	addwf	_cont2,f
  1752  01B6                     i1l1130:
  1753                           
  1754                           ;main_ma.c: 53:             PORTB = cont2;
  1755  01B6  1283               	bcf	3,5	;RP0=0, select bank0
  1756  01B7  1303               	bcf	3,6	;RP1=0, select bank0
  1757  01B8  0832               	movf	_cont2,w
  1758  01B9  0086               	movwf	6	;volatile
  1759  01BA                     i1l1132:
  1760                           
  1761                           ;main_ma.c: 55:     tmr0_reload();
  1762  01BA  120A  118A  21EF  120A  118A  	fcall	_tmr0_reload
  1763  01BF                     i1l96:
  1764  01BF  0872               	movf	??_isr+2,w
  1765  01C0  008A               	movwf	10
  1766  01C1  0E71               	swapf	??_isr+1,w
  1767  01C2  0083               	movwf	3
  1768  01C3  0EFE               	swapf	btemp,f
  1769  01C4  0E7E               	swapf	btemp,w
  1770  01C5  0009               	retfie
  1771  01C6                     __end_of_isr:
  1772                           
  1773                           	psect	intentry
  1774  0004                     __pintentry:	
  1775                           ;incstack = 0
  1776                           ; Regs used in _isr: [wreg+status,2+status,0+pclath+cstack]
  1777                           
  1778  0004                     interrupt_function:
  1779  007E                     saved_w	set	btemp
  1780  0004  00FE               	movwf	btemp
  1781  0005  0E03               	swapf	3,w
  1782  0006  00F1               	movwf	??_isr+1
  1783  0007  080A               	movf	10,w
  1784  0008  00F2               	movwf	??_isr+2
  1785  0009  120A  118A  29A1   	ljmp	_isr
  1786                           
  1787                           	psect	text11
  1788  01EF                     __ptext11:	
  1789 ;; *************** function _tmr0_reload *****************
  1790 ;; Defined at:
  1791 ;;		line 40 in file "../lab03.X/tmr0.c"
  1792 ;; Parameters:    Size  Location     Type
  1793 ;;		None
  1794 ;; Auto vars:     Size  Location     Type
  1795 ;;		None
  1796 ;; Return value:  Size  Location     Type
  1797 ;;                  1    wreg      void 
  1798 ;; Registers used:
  1799 ;;		wreg
  1800 ;; Tracked objects:
  1801 ;;		On entry : 0/0
  1802 ;;		On exit  : 0/0
  1803 ;;		Unchanged: 0/0
  1804 ;; Data sizes:     COMMON   BANK0   BANK1   BANK3   BANK2
  1805 ;;      Params:         0       0       0       0       0
  1806 ;;      Locals:         0       0       0       0       0
  1807 ;;      Temps:          0       0       0       0       0
  1808 ;;      Totals:         0       0       0       0       0
  1809 ;;Total ram usage:        0 bytes
  1810 ;; Hardware stack levels used: 1
  1811 ;; This function calls:
  1812 ;;		Nothing
  1813 ;; This function is called by:
  1814 ;;		_isr
  1815 ;; This function uses a non-reentrant model
  1816 ;;
  1817                           
  1818  01EF                     _tmr0_reload:	
  1819                           ;psect for function _tmr0_reload
  1820                           
  1821  01EF                     i1l1084:	
  1822                           ;incstack = 0
  1823                           ; Regs used in _tmr0_reload: [wreg]
  1824                           
  1825                           
  1826                           ;../lab03.X/tmr0.c: 41:     INTCONbits.T0IF = 0;
  1827  01EF  110B               	bcf	11,2	;volatile
  1828  01F0                     i1l1086:
  1829                           
  1830                           ;../lab03.X/tmr0.c: 42:     TMR0 = 61;
  1831  01F0  303D               	movlw	61
  1832  01F1  1283               	bcf	3,5	;RP0=0, select bank0
  1833  01F2  1303               	bcf	3,6	;RP1=0, select bank0
  1834  01F3  0081               	movwf	1	;volatile
  1835  01F4                     i1l130:
  1836  01F4  0008               	return
  1837  01F5                     __end_of_tmr0_reload:
  1838  007E                     btemp	set	126	;btemp
  1839  007E                     wtemp0	set	126
  1840                           
  1841                           	psect	idloc
  1842                           
  1843                           ;Config register IDLOC0 @ 0x2000
  1844                           ;	unspecified, using default values
  1845  2000                     	org	8192
  1846  2000  3FFF               	dw	16383
  1847                           
  1848                           ;Config register IDLOC1 @ 0x2001
  1849                           ;	unspecified, using default values
  1850  2001                     	org	8193
  1851  2001  3FFF               	dw	16383
  1852                           
  1853                           ;Config register IDLOC2 @ 0x2002
  1854                           ;	unspecified, using default values
  1855  2002                     	org	8194
  1856  2002  3FFF               	dw	16383
  1857                           
  1858                           ;Config register IDLOC3 @ 0x2003
  1859                           ;	unspecified, using default values
  1860  2003                     	org	8195
  1861  2003  3FFF               	dw	16383
  1862                           
  1863                           	psect	config
  1864                           
  1865                           ;Config register CONFIG1 @ 0x2007
  1866                           ;	Oscillator Selection bits
  1867                           ;	FOSC = INTRC_CLKOUT, INTOSC oscillator: CLKOUT function on RA6/OSC2/CLKOUT pin, I/O fu
      +                          nction on RA7/OSC1/CLKIN
  1868                           ;	Watchdog Timer Enable bit
  1869                           ;	WDTE = OFF, WDT disabled and can be enabled by SWDTEN bit of the WDTCON register
  1870                           ;	Power-up Timer Enable bit
  1871                           ;	PWRTE = OFF, PWRT disabled
  1872                           ;	RE3/MCLR pin function select bit
  1873                           ;	MCLRE = OFF, RE3/MCLR pin function is digital input, MCLR internally tied to VDD
  1874                           ;	Code Protection bit
  1875                           ;	CP = OFF, Program memory code protection is disabled
  1876                           ;	Data Code Protection bit
  1877                           ;	CPD = OFF, Data memory code protection is disabled
  1878                           ;	Brown Out Reset Selection bits
  1879                           ;	BOREN = OFF, BOR disabled
  1880                           ;	Internal External Switchover bit
  1881                           ;	IESO = OFF, Internal/External Switchover mode is disabled
  1882                           ;	Fail-Safe Clock Monitor Enabled bit
  1883                           ;	FCMEN = OFF, Fail-Safe Clock Monitor is disabled
  1884                           ;	Low Voltage Programming Enable bit
  1885                           ;	LVP = OFF, RB3 pin has digital I/O, HV on MCLR must be used for programming
  1886                           ;	In-Circuit Debugger Mode bit
  1887                           ;	DEBUG = 0x1, unprogrammed default
  1888  2007                     	org	8199
  1889  2007  20D5               	dw	8405
  1890                           
  1891                           ;Config register CONFIG2 @ 0x2008
  1892                           ;	Brown-out Reset Selection bit
  1893                           ;	BOR4V = BOR40V, Brown-out Reset set to 4.0V
  1894                           ;	Flash Program Memory Self Write Enable bits
  1895                           ;	WRT = OFF, Write protection off
  1896  2008                     	org	8200
  1897  2008  3FFF               	dw	16383

Data Sizes:
    Strings     0
    Constant    0
    Data        0
    BSS         3
    Persistent  0
    Stack       0

Auto Spaces:
    Space          Size  Autos    Used
    COMMON           14      9      11
    BANK0            80     18      19
    BANK1            80      0       0
    BANK3            96      0       0
    BANK2            96      0       0

Pointer List with Targets:

    None.

Critical Paths under _main in COMMON

    _I2C_Master_Init->___lldiv

Critical Paths under _isr in COMMON

    None.

Critical Paths under _main in BANK0

    _setup->_I2C_Master_Init
    _I2C_Master_Init->___lldiv

Critical Paths under _isr in BANK0

    None.

Critical Paths under _main in BANK1

    None.

Critical Paths under _isr in BANK1

    None.

Critical Paths under _main in BANK3

    None.

Critical Paths under _isr in BANK3

    None.

Critical Paths under _main in BANK2

    None.

Critical Paths under _isr in BANK2

    None.

Call Graph Tables:

 ---------------------------------------------------------------------------------
 (Depth) Function   	        Calls       Base Space   Used Autos Params    Refs
 ---------------------------------------------------------------------------------
 (0) _main                                                 2     2      0     760
                                             16 BANK0      2     2      0
                   _I2C_Master_Start
                    _I2C_Master_Stop
                   _I2C_Master_Write
                              _setup
 ---------------------------------------------------------------------------------
 (1) _setup                                                0     0      0     586
                    _I2C_Master_Init
                        _int_osc_MHz
                          _tmr0_init
 ---------------------------------------------------------------------------------
 (2) _tmr0_init                                            3     3      0      22
                                              3 COMMON     3     3      0
 ---------------------------------------------------------------------------------
 (2) _int_osc_MHz                                          3     3      0      22
                                              3 COMMON     3     3      0
 ---------------------------------------------------------------------------------
 (2) _I2C_Master_Init                                      8     4      4     542
                                              8 BANK0      8     4      4
                            ___lldiv
 ---------------------------------------------------------------------------------
 (3) ___lldiv                                             14     6      8     421
                                              3 COMMON     6     6      0
                                              0 BANK0      8     0      8
 ---------------------------------------------------------------------------------
 (1) _I2C_Master_Write                                     2     0      2     174
                                              3 COMMON     2     0      2
                    _I2C_Master_Wait
 ---------------------------------------------------------------------------------
 (1) _I2C_Master_Stop                                      0     0      0       0
                    _I2C_Master_Wait
 ---------------------------------------------------------------------------------
 (1) _I2C_Master_Start                                     0     0      0       0
                    _I2C_Master_Wait
 ---------------------------------------------------------------------------------
 (2) _I2C_Master_Wait                                      0     0      0       0
 ---------------------------------------------------------------------------------
 Estimated maximum stack depth 3
 ---------------------------------------------------------------------------------
 (Depth) Function   	        Calls       Base Space   Used Autos Params    Refs
 ---------------------------------------------------------------------------------
 (4) _isr                                                  3     3      0       0
                                              0 COMMON     3     3      0
                        _tmr0_reload
 ---------------------------------------------------------------------------------
 (5) _tmr0_reload                                          0     0      0       0
 ---------------------------------------------------------------------------------
 Estimated maximum stack depth 5
 ---------------------------------------------------------------------------------

 Call Graph Graphs:

 _main (ROOT)
   _I2C_Master_Start
     _I2C_Master_Wait
   _I2C_Master_Stop
     _I2C_Master_Wait
   _I2C_Master_Write
     _I2C_Master_Wait
   _setup
     _I2C_Master_Init
       ___lldiv
     _int_osc_MHz
     _tmr0_init

 _isr (ROOT)
   _tmr0_reload

 Address spaces:
Name               Size   Autos  Total    Cost      Usage
BITCOMMON            E      0       0       0        0.0%
EEDATA             100      0       0       0        0.0%
NULL                 0      0       0       0        0.0%
CODE                 0      0       0       0        0.0%
COMMON               E      9       B       1       78.6%
BITSFR0              0      0       0       1        0.0%
SFR0                 0      0       0       1        0.0%
BITSFR1              0      0       0       2        0.0%
SFR1                 0      0       0       2        0.0%
STACK                0      0       0       2        0.0%
ABS                  0      0      1E       3        0.0%
BITBANK0            50      0       0       4        0.0%
BITSFR3              0      0       0       4        0.0%
SFR3                 0      0       0       4        0.0%
BANK0               50     12      13       5       23.8%
BITSFR2              0      0       0       5        0.0%
SFR2                 0      0       0       5        0.0%
BITBANK1            50      0       0       6        0.0%
BANK1               50      0       0       7        0.0%
BITBANK3            60      0       0       8        0.0%
BANK3               60      0       0       9        0.0%
BITBANK2            60      0       0      10        0.0%
BANK2               60      0       0      11        0.0%
DATA                 0      0      1E      12        0.0%


Microchip Technology PIC Macro Assembler V2.35 build 20211206165544 
Symbol Table                                                                                   Thu Aug 18 20:17:04 2022

                      l32 01C6                        l35 01D2                        l44 01E5  
                      l29 0110                        l38 01EE                        l47 01DC  
                     l107 01A0                       l142 0176                       l127 00D6  
                     l264 007F                       _GIE 005F                       u220 01CC  
                     u221 01CB                       u230 01D2                       u310 0059  
                     u231 01D1                       u311 0058                       u305 0040  
                     u330 0077                       u331 0076                       u315 0055  
                     u340 00EE                       u325 0069                       u270 002A  
                     u271 0029                       u345 00E9                       u290 003E  
                     u291 003D                       u285 002F                       u357 013D  
                     _isr 01A1                      l1020 014B                      l1014 01C6  
                    l1022 0150                      l1016 01CC                      l1024 0155  
                    l1032 0160                      l1040 0086                      l1210 002A  
                    l1026 015A                      l1018 0147                      l1050 009D  
                    l1042 0089                      l1220 0059                      l1212 002D  
                    l1028 015D                      l1052 00A2                      l1044 008E  
                    l1060 00D1                      l1222 0067                      l1214 003A  
                    l1062 00D5                      l1054 00A7                      l1046 0093  
                    l1038 0081                      l1072 01E6                      l1080 01D3  
                    l1224 0068                      l1216 003E                      l1208 0018  
                    l1240 010E                      l1232 00D7                      l1048 0098  
                    l1074 01EB                      l1082 01D8                      l1226 0071  
                    l1218 0047                      l1242 010F                      l1234 00DB  
                    l1058 00AA                      l1250 0182                      l1076 01DD  
                    l1228 0077                      l1236 00DE                      l1260 019A  
                    l1252 0183                      l1244 0177                      l1078 01E2  
                    l1238 010D                      l1334 00B5                      l1254 0184  
                    l1246 017B                      l1270 0132                      l1262 0111  
                    l1336 00CC                      l1256 0185                      l1248 017F  
                    l1272 0137                      l1264 0116                      l1338 0168  
                    l1258 018B                      l1266 011B                      l1268 0124  
                    ?_isr 0070                      _PEIE 005E                      i1l96 01BF  
                    _TMR0 0001                      _cont 007A                      _main 0111  
                    _send 0079                      btemp 007E                      start 000C  
                   ??_isr 0070          ?_I2C_Master_Init 0028          ?_I2C_Master_Wait 0070  
        ?_I2C_Master_Stop 0070                     ?_main 0070                     _ANSEL 0188  
         __end_of___lldiv 0080                     i1l130 01F4                     u25_20 01A5  
                   u25_21 01A4                     u26_20 01AF                     u26_21 01AE  
                   _PORTB 0006                     _TRISB 0086                     _SSPIE 0463  
                   _SSPIF 0063           int_osc_MHz@freq 0075                     _cont2 0032  
                   _setup 0177              ?_int_osc_MHz 0070                     pclath 000A  
                   status 0003                     wtemp0 007E           __initialization 000F  
            __end_of_main 0146                    ??_main 0030         ?_I2C_Master_Start 0070  
       ?_I2C_Master_Write 0073              ?_tmr0_reload 0070        ??_I2C_Master_Start 0073  
      ??_I2C_Master_Write 0075                    ?_setup 0070                    _ANSELH 0189  
                  i1l1130 01B6                    i1l1122 01A1                    i1l1124 01A5  
                  i1l1132 01BA                    i1l1126 01AF                    i1l1128 01B0  
                  i1l1084 01EF                    i1l1086 01F0                    _SSPADD 0093  
                  _TRISC3 043B                    _TRISC4 043C                    _SSPCON 0014  
                  _SSPBUF 0013                 ??___lldiv 0073                    saved_w 007E  
 __end_of__initialization 0014            __pcstackCOMMON 0070             __end_of_setup 01A1  
          _OPTION_REGbits 0081                   ??_setup 0079                __pbssBANK0 0032  
              __pmaintext 0111                __pintentry 0004                   _SSPCON2 0091  
                 _SSPSTAT 0094                   ___lldiv 0018                   __ptext1 0177  
                 __ptext2 0080                   __ptext3 0146                   __ptext4 00D7  
                 __ptext5 0018                   __ptext6 01D3                   __ptext7 01DD  
                 __ptext8 01E6                   __ptext9 01C6      end_of_initialization 0014  
       __end_of_tmr0_init 00D7           ___lldiv@divisor 0020           ___lldiv@counter 0078  
        I2C_Master_Init@c 0028                 _TRISCbits 0087       start_initialization 000F  
             __end_of_isr 01C6         ??_I2C_Master_Init 002C         ??_I2C_Master_Wait 0073  
       ??_I2C_Master_Stop 0073               __pbssCOMMON 0079                 ___latbits 0002  
           __pcstackBANK0 0020             ??_int_osc_MHz 0073          _I2C_Master_Start 01E6  
        _I2C_Master_Write 01D3                  ?___lldiv 0020             ??_tmr0_reload 0070  
       interrupt_function 0004                 _tmr0_init 0080       __end_of_int_osc_MHz 0177  
      tmr0_init@prescaler 0075       __end_of_tmr0_reload 01F5                ?_tmr0_init 0070  
         _I2C_Master_Init 00D7           _I2C_Master_Wait 01C6           _I2C_Master_Stop 01DD  
                __ptext10 01A1                  __ptext11 01EF               _int_osc_MHz 0146  
__end_of_I2C_Master_Start 01EF  __end_of_I2C_Master_Write 01DD                _INTCONbits 000B  
             _tmr0_reload 01EF                  intlevel1 0000          ___lldiv@dividend 0024  
             ??_tmr0_init 0073                _OSCCONbits 008F   __end_of_I2C_Master_Init 0111  
 __end_of_I2C_Master_Wait 01D3   __end_of_I2C_Master_Stop 01E6          ___lldiv@quotient 0074  
       I2C_Master_Write@d 0073               _SSPCON2bits 0091  
